; Function Attrs: nounwind uwtable
define hidden ptr @mi_heap_new_ex(i32 noundef %0, i1 noundef zeroext %1, i32 noundef %2) local_unnamed_addr #0 {
  tail call void @mi_thread_init() #11
  %4 = tail call align 8 ptr @llvm.threadlocal.address.p0(ptr align 8 @_mi_heap_default)
  %5 = load ptr, ptr %4, align 8, !tbaa !42
  %6 = load ptr, ptr %5, align 8, !tbaa !14
  %7 = getelementptr inbounds nuw i8, ptr %6, i64 16
  %8 = load ptr, ptr %7, align 8, !tbaa !15
  %9 = tail call noalias ptr @mi_heap_malloc(ptr noundef %8, i64 noundef 3064) #11
  %10 = icmp eq ptr %9, null
  br i1 %10, label %14, label %11

11:                                               ; preds = %3
  %12 = load ptr, ptr %8, align 8, !tbaa !14
  %13 = trunc i32 %0 to i8
  tail call void @_mi_heap_init(ptr noundef nonnull %9, ptr noundef %12, i32 noundef %2, i1 noundef zeroext %1, i8 noundef zeroext %13) #10
  br label %14

14:                                               ; preds = %3, %11
  ret ptr %9
}